; Function Attrs: nounwind uwtable
define ptr @l_Lean_Omega_tidy(ptr noundef %0) local_unnamed_addr #1 {
  %2 = ptrtoint ptr %0 to i64
  %3 = and i64 %2, 1
  %.not = icmp eq i64 %3, 0
  br i1 %.not, label %4, label %lean_inc.exit11

4:                                                ; preds = %1
  %.val.i = load i32, ptr %0, align 4, !tbaa !6
  %5 = icmp sgt i32 %.val.i, 0
  br i1 %5, label %6, label %8, !prof !5

6:                                                ; preds = %4
  %7 = add nuw i32 %.val.i, 1
  store i32 %7, ptr %0, align 4, !tbaa !6
  br label %lean_inc.exit11

8:                                                ; preds = %4
  %.not.i14 = icmp eq i32 %.val.i, 0
  br i1 %.not.i14, label %lean_inc.exit11, label %9

9:                                                ; preds = %8
  tail call void @lean_inc_ref_cold(ptr noundef nonnull %0) #4
  br label %lean_inc.exit11

lean_inc.exit11:                                  ; preds = %9, %8, %6, %1
  %10 = tail call ptr @l_Lean_Omega_tidy_x3f(ptr noundef %0)
  %11 = ptrtoint ptr %10 to i64
  %12 = and i64 %11, 1
  %.not.i15 = icmp eq i64 %12, 0
  br i1 %.not.i15, label %16, label %13

13:                                               ; preds = %lean_inc.exit11
  %14 = lshr i64 %11, 1
  %15 = trunc i64 %14 to i32
  br label %lean_obj_tag.exit

16:                                               ; preds = %lean_inc.exit11
  %17 = getelementptr i8, ptr %10, i64 4
  %.val.i16 = load i32, ptr %17, align 4
  %18 = lshr i32 %.val.i16, 24
  br label %lean_obj_tag.exit

lean_obj_tag.exit:                                ; preds = %13, %16
  %.0.i = phi i32 [ %15, %13 ], [ %18, %16 ]
  %19 = icmp eq i32 %.0.i, 0
  br i1 %19, label %lean_dec.exit, label %20

20:                                               ; preds = %lean_obj_tag.exit
  br i1 %.not, label %21, label %lean_dec.exit10

21:                                               ; preds = %20
  %22 = load i32, ptr %0, align 4, !tbaa !6
  %23 = icmp sgt i32 %22, 1
  br i1 %23, label %24, label %26, !prof !5

24:                                               ; preds = %21
  %25 = add nsw i32 %22, -1
  store i32 %25, ptr %0, align 4, !tbaa !6
  br label %lean_dec.exit10

26:                                               ; preds = %21
  %.not.i = icmp eq i32 %22, 0
  br i1 %.not.i, label %lean_dec.exit10, label %27

27:                                               ; preds = %26
  tail call void @lean_dec_ref_cold(ptr noundef nonnull %0) #4
  br label %lean_dec.exit10

lean_dec.exit10:                                  ; preds = %27, %26, %24, %20
  %28 = getelementptr inbounds nuw i8, ptr %10, i64 8
  %29 = load ptr, ptr %28, align 8, !tbaa !11
  %30 = ptrtoint ptr %29 to i64
  %31 = and i64 %30, 1
  %.not20 = icmp eq i64 %31, 0
  br i1 %.not20, label %32, label %lean_inc.exit

32:                                               ; preds = %lean_dec.exit10
  %.val.i17 = load i32, ptr %29, align 4, !tbaa !6
  %33 = icmp sgt i32 %.val.i17, 0
  br i1 %33, label %34, label %36, !prof !5

34:                                               ; preds = %32
  %35 = add nuw i32 %.val.i17, 1
  store i32 %35, ptr %29, align 4, !tbaa !6
  br label %lean_inc.exit

36:                                               ; preds = %32
  %.not.i18 = icmp eq i32 %.val.i17, 0
  br i1 %.not.i18, label %lean_inc.exit, label %37

37:                                               ; preds = %36
  tail call void @lean_inc_ref_cold(ptr noundef nonnull %29) #4
  br label %lean_inc.exit

lean_inc.exit:                                    ; preds = %37, %36, %34, %lean_dec.exit10
  br i1 %.not.i15, label %38, label %lean_dec.exit

38:                                               ; preds = %lean_inc.exit
  %39 = load i32, ptr %10, align 4, !tbaa !6
  %40 = icmp sgt i32 %39, 1
  br i1 %40, label %41, label %43, !prof !5

41:                                               ; preds = %38
  %42 = add nsw i32 %39, -1
  store i32 %42, ptr %10, align 4, !tbaa !6
  br label %lean_dec.exit

43:                                               ; preds = %38
  %.not.i12 = icmp eq i32 %39, 0
  br i1 %.not.i12, label %lean_dec.exit, label %44

44:                                               ; preds = %43
  tail call void @lean_dec_ref_cold(ptr noundef nonnull %10) #4
  br label %lean_dec.exit

lean_dec.exit:                                    ; preds = %lean_inc.exit, %41, %43, %44, %lean_obj_tag.exit
  %.0 = phi ptr [ %0, %lean_obj_tag.exit ], [ %29, %44 ], [ %29, %43 ], [ %29, %41 ], [ %29, %lean_inc.exit ]
  ret ptr %.0
}